target datalayout = "e-m:e-p270:32:32-p271:32:32-p272:64:64-i64:64-i128:128-f80:128-n8:16:32:64-S128"
target triple = "x86_64-pc-linux-gnu"

@build_requant_tab.offsets = internal constant [8 x i8] c"\01\01\02\FD\FD\03\04\04", align 1
@build_requant_tab.deltas = internal constant [8 x i8] c"\00\01\00\04\04\01\00\01", align 1
@requant_tab = internal global [8 x [128 x i8]] zeroinitializer, align 16

; Function Attrs: cold nounwind optsize uwtable
define internal void @build_requant_tab() #0 {
  %1 = alloca i32, align 4
  %2 = alloca i32, align 4
  %3 = alloca i32, align 4
  call void @llvm.lifetime.start.p0(i64 4, ptr %1) #10
  call void @llvm.lifetime.start.p0(i64 4, ptr %2) #10
  call void @llvm.lifetime.start.p0(i64 4, ptr %3) #10
  store i32 0, ptr %1, align 4, !tbaa !49
  br label %4

4:                                                ; preds = %42, %0
  %5 = load i32, ptr %1, align 4, !tbaa !49
  %6 = icmp slt i32 %5, 8
  br i1 %6, label %7, label %45

7:                                                ; preds = %4
  %8 = load i32, ptr %1, align 4, !tbaa !49
  %9 = add nsw i32 %8, 2
  store i32 %9, ptr %3, align 4, !tbaa !49
  store i32 0, ptr %2, align 4, !tbaa !49
  br label %10

10:                                               ; preds = %38, %7
  %11 = load i32, ptr %2, align 4, !tbaa !49
  %12 = icmp slt i32 %11, 128
  br i1 %12, label %13, label %41

13:                                               ; preds = %10
  %14 = load i32, ptr %2, align 4, !tbaa !49
  %15 = load i32, ptr %1, align 4, !tbaa !49
  %16 = sext i32 %15 to i64
  %17 = getelementptr inbounds [8 x i8], ptr @build_requant_tab.offsets, i64 0, i64 %16
  %18 = load i8, ptr %17, align 1, !tbaa !59
  %19 = sext i8 %18 to i32
  %20 = add nsw i32 %14, %19
  %21 = load i32, ptr %3, align 4, !tbaa !49
  %22 = sdiv i32 %20, %21
  %23 = load i32, ptr %3, align 4, !tbaa !49
  %24 = mul nsw i32 %22, %23
  %25 = load i32, ptr %1, align 4, !tbaa !49
  %26 = sext i32 %25 to i64
  %27 = getelementptr inbounds [8 x i8], ptr @build_requant_tab.deltas, i64 0, i64 %26
  %28 = load i8, ptr %27, align 1, !tbaa !59
  %29 = sext i8 %28 to i32
  %30 = add nsw i32 %24, %29
  %31 = trunc i32 %30 to i8
  %32 = load i32, ptr %1, align 4, !tbaa !49
  %33 = sext i32 %32 to i64
  %34 = getelementptr inbounds [8 x [128 x i8]], ptr @requant_tab, i64 0, i64 %33
  %35 = load i32, ptr %2, align 4, !tbaa !49
  %36 = sext i32 %35 to i64
  %37 = getelementptr inbounds [128 x i8], ptr %34, i64 0, i64 %36
  store i8 %31, ptr %37, align 1, !tbaa !59
  br label %38

38:                                               ; preds = %13
  %39 = load i32, ptr %2, align 4, !tbaa !49
  %40 = add nsw i32 %39, 1
  store i32 %40, ptr %2, align 4, !tbaa !49
  br label %10, !llvm.loop !60

41:                                               ; preds = %10
  br label %42

42:                                               ; preds = %41
  %43 = load i32, ptr %1, align 4, !tbaa !49
  %44 = add nsw i32 %43, 1
  store i32 %44, ptr %1, align 4, !tbaa !49
  br label %4, !llvm.loop !62

45:                                               ; preds = %4
  store i8 126, ptr getelementptr inbounds ([128 x i8], ptr @requant_tab, i64 0, i64 127), align 1, !tbaa !59
  store i8 118, ptr getelementptr inbounds ([128 x i8], ptr getelementptr inbounds ([8 x [128 x i8]], ptr @requant_tab, i64 0, i64 1), i64 0, i64 119), align 1, !tbaa !59
  store i8 118, ptr getelementptr inbounds ([128 x i8], ptr getelementptr inbounds ([8 x [128 x i8]], ptr @requant_tab, i64 0, i64 1), i64 0, i64 120), align 8, !tbaa !59
  store i8 124, ptr getelementptr inbounds ([128 x i8], ptr getelementptr inbounds ([8 x [128 x i8]], ptr @requant_tab, i64 0, i64 2), i64 0, i64 126), align 2, !tbaa !59
  store i8 124, ptr getelementptr inbounds ([128 x i8], ptr getelementptr inbounds ([8 x [128 x i8]], ptr @requant_tab, i64 0, i64 2), i64 0, i64 127), align 1, !tbaa !59
  store i8 120, ptr getelementptr inbounds ([128 x i8], ptr getelementptr inbounds ([8 x [128 x i8]], ptr @requant_tab, i64 0, i64 6), i64 0, i64 124), align 4, !tbaa !59
  store i8 120, ptr getelementptr inbounds ([128 x i8], ptr getelementptr inbounds ([8 x [128 x i8]], ptr @requant_tab, i64 0, i64 6), i64 0, i64 125), align 1, !tbaa !59
  store i8 120, ptr getelementptr inbounds ([128 x i8], ptr getelementptr inbounds ([8 x [128 x i8]], ptr @requant_tab, i64 0, i64 6), i64 0, i64 126), align 2, !tbaa !59
  store i8 120, ptr getelementptr inbounds ([128 x i8], ptr getelementptr inbounds ([8 x [128 x i8]], ptr @requant_tab, i64 0, i64 6), i64 0, i64 127), align 1, !tbaa !59
  store i8 10, ptr getelementptr inbounds ([128 x i8], ptr getelementptr inbounds ([8 x [128 x i8]], ptr @requant_tab, i64 0, i64 1), i64 0, i64 7), align 1, !tbaa !59
  store i8 10, ptr getelementptr inbounds ([128 x i8], ptr getelementptr inbounds ([8 x [128 x i8]], ptr @requant_tab, i64 0, i64 4), i64 0, i64 8), align 8, !tbaa !59
  call void @llvm.lifetime.end.p0(i64 4, ptr %3) #10
  call void @llvm.lifetime.end.p0(i64 4, ptr %2) #10
  call void @llvm.lifetime.end.p0(i64 4, ptr %1) #10
  ret void
}