; Function Attrs: cold nofree norecurse nosync nounwind optsize memory(write, argmem: none, inaccessiblemem: none) uwtable
define internal void @build_requant_tab() #4 {
  br label %1

1:                                                ; preds = %0, %17
  %indvars.iv16 = phi i64 [ 0, %0 ], [ %indvars.iv.next17, %17 ]
  %2 = getelementptr inbounds nuw [8 x i8], ptr @build_requant_tab.offsets, i64 0, i64 %indvars.iv16
  %3 = load i8, ptr %2, align 1, !tbaa !40
  %4 = sext i8 %3 to i64
  %5 = getelementptr inbounds nuw [8 x i8], ptr @build_requant_tab.deltas, i64 0, i64 %indvars.iv16
  %6 = load i8, ptr %5, align 1, !tbaa !40
  %7 = trunc i64 %indvars.iv16 to i32
  %8 = add i32 %7, 2
  br label %9

9:                                                ; preds = %1, %9
  %indvars.iv = phi i64 [ 0, %1 ], [ %indvars.iv.next, %9 ]
  %10 = add i64 %indvars.iv, %4
  %.fr20 = freeze i64 %10
  %11 = trunc i64 %.fr20 to i32
  %12 = srem i32 %11, %8
  %13 = sub nsw i32 %11, %12
  %14 = trunc i32 %13 to i8
  %15 = add i8 %6, %14
  %16 = getelementptr inbounds nuw [8 x [128 x i8]], ptr @requant_tab, i64 0, i64 %indvars.iv16, i64 %indvars.iv
  store i8 %15, ptr %16, align 1, !tbaa !40
  %indvars.iv.next = add nuw nsw i64 %indvars.iv, 1
  %exitcond.not = icmp eq i64 %indvars.iv.next, 128
  br i1 %exitcond.not, label %17, label %9, !llvm.loop !61

17:                                               ; preds = %9
  %indvars.iv.next17 = add nuw nsw i64 %indvars.iv16, 1
  %exitcond19.not = icmp eq i64 %indvars.iv.next17, 8
  br i1 %exitcond19.not, label %18, label %1, !llvm.loop !62

18:                                               ; preds = %17
  store i8 126, ptr getelementptr inbounds nuw (i8, ptr @requant_tab, i64 127), align 1, !tbaa !40
  store i8 118, ptr getelementptr inbounds nuw (i8, ptr @requant_tab, i64 247), align 1, !tbaa !40
  store i8 118, ptr getelementptr inbounds nuw (i8, ptr @requant_tab, i64 248), align 8, !tbaa !40
  store i8 124, ptr getelementptr inbounds nuw (i8, ptr @requant_tab, i64 382), align 2, !tbaa !40
  store i8 124, ptr getelementptr inbounds nuw (i8, ptr @requant_tab, i64 383), align 1, !tbaa !40
  store i32 2021161080, ptr getelementptr inbounds nuw (i8, ptr @requant_tab, i64 892), align 4
  store i8 10, ptr getelementptr inbounds nuw (i8, ptr @requant_tab, i64 135), align 1, !tbaa !40
  store i8 10, ptr getelementptr inbounds nuw (i8, ptr @requant_tab, i64 520), align 8, !tbaa !40
  ret void
}